target datalayout = "e-m:e-p270:32:32-p271:32:32-p272:64:64-i64:64-i128:128-f80:128-n8:16:32:64-S128"
target triple = "x86_64-pc-linux-gnu"

%struct.flock = type { i16, i16, i64, i64, i32 }

@PyExc_TypeError = external global ptr, align 8
@PyExc_ValueError = external global ptr, align 8
@PyExc_OSError = external global ptr, align 8
@.str.24 = private unnamed_addr constant [45 x i8] c"lockf expected at least 2 arguments, got %zd\00", align 1
@.str.25 = private unnamed_addr constant [44 x i8] c"lockf expected at most 5 arguments, got %zd\00", align 1
@.str.26 = private unnamed_addr constant [12 x i8] c"fcntl.lockf\00", align 1
@.str.27 = private unnamed_addr constant [6 x i8] c"iiOOi\00", align 1
@.str.28 = private unnamed_addr constant [28 x i8] c"unrecognized lockf argument\00", align 1

; Function Attrs: nounwind uwtable
define internal ptr @fcntl_lockf_impl(ptr noundef %0, i32 noundef %1, i32 noundef %2, ptr noundef %3, ptr noundef %4, i32 noundef %5) #0 {
  %7 = alloca ptr, align 8
  %8 = alloca ptr, align 8
  %9 = alloca i32, align 4
  %10 = alloca i32, align 4
  %11 = alloca ptr, align 8
  %12 = alloca ptr, align 8
  %13 = alloca i32, align 4
  %14 = alloca i32, align 4
  %15 = alloca i32, align 4
  %16 = alloca i32, align 4
  %17 = alloca %struct.flock, align 8
  %18 = alloca ptr, align 8
  store ptr %0, ptr %8, align 8, !tbaa !3
  store i32 %1, ptr %9, align 4, !tbaa !12
  store i32 %2, ptr %10, align 4, !tbaa !12
  store ptr %3, ptr %11, align 8, !tbaa !3
  store ptr %4, ptr %12, align 8, !tbaa !3
  store i32 %5, ptr %13, align 4, !tbaa !12
  call void @llvm.lifetime.start.p0(i64 4, ptr %14) #7
  call void @llvm.lifetime.start.p0(i64 4, ptr %15) #7
  store i32 0, ptr %15, align 4, !tbaa !12
  %19 = load i32, ptr %9, align 4, !tbaa !12
  %20 = load i32, ptr %10, align 4, !tbaa !12
  %21 = load ptr, ptr %11, align 8, !tbaa !3
  %22 = icmp ne ptr %21, null
  br i1 %22, label %23, label %25

23:                                               ; preds = %6
  %24 = load ptr, ptr %11, align 8, !tbaa !3
  br label %27

25:                                               ; preds = %6
  %26 = call ptr @Py_GetConstantBorrowed(i32 noundef 0)
  br label %27

27:                                               ; preds = %25, %23
  %28 = phi ptr [ %24, %23 ], [ %26, %25 ]
  %29 = load ptr, ptr %12, align 8, !tbaa !3
  %30 = icmp ne ptr %29, null
  br i1 %30, label %31, label %33

31:                                               ; preds = %27
  %32 = load ptr, ptr %12, align 8, !tbaa !3
  br label %35

33:                                               ; preds = %27
  %34 = call ptr @Py_GetConstantBorrowed(i32 noundef 0)
  br label %35

35:                                               ; preds = %33, %31
  %36 = phi ptr [ %32, %31 ], [ %34, %33 ]
  %37 = load i32, ptr %13, align 4, !tbaa !12
  %38 = call i32 (ptr, ptr, ...) @PySys_Audit(ptr noundef @.str.26, ptr noundef @.str.27, i32 noundef %19, i32 noundef %20, ptr noundef %28, ptr noundef %36, i32 noundef %37)
  %39 = icmp slt i32 %38, 0
  br i1 %39, label %40, label %41

40:                                               ; preds = %35
  store ptr null, ptr %7, align 8
  store i32 1, ptr %16, align 4
  br label %129

41:                                               ; preds = %35
  call void @llvm.lifetime.start.p0(i64 32, ptr %17) #7
  %42 = load i32, ptr %10, align 4, !tbaa !12
  %43 = icmp eq i32 %42, 8
  br i1 %43, label %44, label %46

44:                                               ; preds = %41
  %45 = getelementptr inbounds nuw %struct.flock, ptr %17, i32 0, i32 0
  store i16 2, ptr %45, align 8, !tbaa !31
  br label %62

46:                                               ; preds = %41
  %47 = load i32, ptr %10, align 4, !tbaa !12
  %48 = and i32 %47, 1
  %49 = icmp ne i32 %48, 0
  br i1 %49, label %50, label %52

50:                                               ; preds = %46
  %51 = getelementptr inbounds nuw %struct.flock, ptr %17, i32 0, i32 0
  store i16 0, ptr %51, align 8, !tbaa !31
  br label %61

52:                                               ; preds = %46
  %53 = load i32, ptr %10, align 4, !tbaa !12
  %54 = and i32 %53, 2
  %55 = icmp ne i32 %54, 0
  br i1 %55, label %56, label %58

56:                                               ; preds = %52
  %57 = getelementptr inbounds nuw %struct.flock, ptr %17, i32 0, i32 0
  store i16 1, ptr %57, align 8, !tbaa !31
  br label %60

58:                                               ; preds = %52
  %59 = load ptr, ptr @PyExc_ValueError, align 8, !tbaa !3
  call void @PyErr_SetString(ptr noundef %59, ptr noundef @.str.28)
  store ptr null, ptr %7, align 8
  store i32 1, ptr %16, align 4
  br label %113

60:                                               ; preds = %56
  br label %61

61:                                               ; preds = %60, %50
  br label %62

62:                                               ; preds = %61, %44
  %63 = getelementptr inbounds nuw %struct.flock, ptr %17, i32 0, i32 3
  store i64 0, ptr %63, align 8, !tbaa !34
  %64 = getelementptr inbounds nuw %struct.flock, ptr %17, i32 0, i32 2
  store i64 0, ptr %64, align 8, !tbaa !35
  %65 = load ptr, ptr %12, align 8, !tbaa !3
  %66 = icmp ne ptr %65, null
  br i1 %66, label %67, label %75

67:                                               ; preds = %62
  %68 = load ptr, ptr %12, align 8, !tbaa !3
  %69 = call i64 @PyLong_AsLong(ptr noundef %68)
  %70 = getelementptr inbounds nuw %struct.flock, ptr %17, i32 0, i32 2
  store i64 %69, ptr %70, align 8, !tbaa !35
  %71 = call ptr @PyErr_Occurred()
  %72 = icmp ne ptr %71, null
  br i1 %72, label %73, label %74

73:                                               ; preds = %67
  store ptr null, ptr %7, align 8
  store i32 1, ptr %16, align 4
  br label %113

74:                                               ; preds = %67
  br label %75

75:                                               ; preds = %74, %62
  %76 = load ptr, ptr %11, align 8, !tbaa !3
  %77 = icmp ne ptr %76, null
  br i1 %77, label %78, label %86

78:                                               ; preds = %75
  %79 = load ptr, ptr %11, align 8, !tbaa !3
  %80 = call i64 @PyLong_AsLong(ptr noundef %79)
  %81 = getelementptr inbounds nuw %struct.flock, ptr %17, i32 0, i32 3
  store i64 %80, ptr %81, align 8, !tbaa !34
  %82 = call ptr @PyErr_Occurred()
  %83 = icmp ne ptr %82, null
  br i1 %83, label %84, label %85

84:                                               ; preds = %78
  store ptr null, ptr %7, align 8
  store i32 1, ptr %16, align 4
  br label %113

85:                                               ; preds = %78
  br label %86

86:                                               ; preds = %85, %75
  %87 = load i32, ptr %13, align 4, !tbaa !12
  %88 = trunc i32 %87 to i16
  %89 = getelementptr inbounds nuw %struct.flock, ptr %17, i32 0, i32 1
  store i16 %88, ptr %89, align 2, !tbaa !36
  br label %90

90:                                               ; preds = %110, %86
  call void @llvm.lifetime.start.p0(i64 8, ptr %18) #7
  %91 = call ptr @PyEval_SaveThread()
  store ptr %91, ptr %18, align 8, !tbaa !16
  %92 = load i32, ptr %9, align 4, !tbaa !12
  %93 = load i32, ptr %10, align 4, !tbaa !12
  %94 = and i32 %93, 4
  %95 = icmp ne i32 %94, 0
  %96 = select i1 %95, i32 6, i32 7
  %97 = call i32 (i32, i32, ...) @fcntl64(i32 noundef %92, i32 noundef %96, ptr noundef %17)
  store i32 %97, ptr %14, align 4, !tbaa !12
  %98 = load ptr, ptr %18, align 8, !tbaa !16
  call void @PyEval_RestoreThread(ptr noundef %98)
  call void @llvm.lifetime.end.p0(i64 8, ptr %18) #7
  br label %99

99:                                               ; preds = %90
  %100 = load i32, ptr %14, align 4, !tbaa !12
  %101 = icmp eq i32 %100, -1
  br i1 %101, label %102, label %110

102:                                              ; preds = %99
  %103 = call ptr @__errno_location() #8
  %104 = load i32, ptr %103, align 4, !tbaa !12
  %105 = icmp eq i32 %104, 4
  br i1 %105, label %106, label %110

106:                                              ; preds = %102
  %107 = call i32 @PyErr_CheckSignals()
  store i32 %107, ptr %15, align 4, !tbaa !12
  %108 = icmp ne i32 %107, 0
  %109 = xor i1 %108, true
  br label %110

110:                                              ; preds = %106, %102, %99
  %111 = phi i1 [ false, %102 ], [ false, %99 ], [ %109, %106 ]
  br i1 %111, label %90, label %112, !llvm.loop !37

112:                                              ; preds = %110
  store i32 0, ptr %16, align 4
  br label %113

113:                                              ; preds = %112, %84, %73, %58
  call void @llvm.lifetime.end.p0(i64 32, ptr %17) #7
  %114 = load i32, ptr %16, align 4
  switch i32 %114, label %129 [
    i32 0, label %115
  ]

115:                                              ; preds = %113
  %116 = load i32, ptr %14, align 4, !tbaa !12
  %117 = icmp slt i32 %116, 0
  br i1 %117, label %118, label %127

118:                                              ; preds = %115
  %119 = load i32, ptr %15, align 4, !tbaa !12
  %120 = icmp ne i32 %119, 0
  br i1 %120, label %124, label %121

121:                                              ; preds = %118
  %122 = load ptr, ptr @PyExc_OSError, align 8, !tbaa !3
  %123 = call ptr @PyErr_SetFromErrno(ptr noundef %122)
  br label %125

124:                                              ; preds = %118
  br label %125

125:                                              ; preds = %124, %121
  %126 = phi ptr [ %123, %121 ], [ null, %124 ]
  store ptr %126, ptr %7, align 8
  store i32 1, ptr %16, align 4
  br label %129

127:                                              ; preds = %115
  %128 = call ptr @Py_GetConstantBorrowed(i32 noundef 0)
  store ptr %128, ptr %7, align 8
  store i32 1, ptr %16, align 4
  br label %129

129:                                              ; preds = %127, %125, %113, %40
  call void @llvm.lifetime.end.p0(i64 4, ptr %15) #7
  call void @llvm.lifetime.end.p0(i64 4, ptr %14) #7
  %130 = load ptr, ptr %7, align 8
  ret ptr %130
}

; Function Attrs: nounwind uwtable
define internal ptr @fcntl_lockf(ptr noundef %0, ptr noundef %1, i64 noundef %2) #0 {
  %4 = alloca ptr, align 8
  %5 = alloca ptr, align 8
  %6 = alloca i64, align 8
  %7 = alloca ptr, align 8
  %8 = alloca i32, align 4
  %9 = alloca i32, align 4
  %10 = alloca ptr, align 8
  %11 = alloca ptr, align 8
  %12 = alloca i32, align 4
  store ptr %0, ptr %4, align 8, !tbaa !3
  store ptr %1, ptr %5, align 8, !tbaa !8
  store i64 %2, ptr %6, align 8, !tbaa !10
  call void @llvm.lifetime.start.p0(i64 8, ptr %7) #7
  store ptr null, ptr %7, align 8, !tbaa !3
  call void @llvm.lifetime.start.p0(i64 4, ptr %8) #7
  call void @llvm.lifetime.start.p0(i64 4, ptr %9) #7
  call void @llvm.lifetime.start.p0(i64 8, ptr %10) #7
  store ptr null, ptr %10, align 8, !tbaa !3
  call void @llvm.lifetime.start.p0(i64 8, ptr %11) #7
  store ptr null, ptr %11, align 8, !tbaa !3
  call void @llvm.lifetime.start.p0(i64 4, ptr %12) #7
  store i32 0, ptr %12, align 4, !tbaa !12
  %13 = load i64, ptr %6, align 8, !tbaa !10
  %14 = icmp slt i64 %13, 2
  br i1 %14, label %15, label %19

15:                                               ; preds = %3
  %16 = load ptr, ptr @PyExc_TypeError, align 8, !tbaa !3
  %17 = load i64, ptr %6, align 8, !tbaa !10
  %18 = call ptr (ptr, ptr, ...) @PyErr_Format(ptr noundef %16, ptr noundef @.str.24, i64 noundef %17)
  br label %83

19:                                               ; preds = %3
  %20 = load i64, ptr %6, align 8, !tbaa !10
  %21 = icmp sgt i64 %20, 5
  br i1 %21, label %22, label %26

22:                                               ; preds = %19
  %23 = load ptr, ptr @PyExc_TypeError, align 8, !tbaa !3
  %24 = load i64, ptr %6, align 8, !tbaa !10
  %25 = call ptr (ptr, ptr, ...) @PyErr_Format(ptr noundef %23, ptr noundef @.str.25, i64 noundef %24)
  br label %83

26:                                               ; preds = %19
  %27 = load ptr, ptr %5, align 8, !tbaa !8
  %28 = getelementptr ptr, ptr %27, i64 0
  %29 = load ptr, ptr %28, align 8, !tbaa !3
  %30 = call i32 @PyObject_AsFileDescriptor(ptr noundef %29)
  store i32 %30, ptr %8, align 4, !tbaa !12
  %31 = load i32, ptr %8, align 4, !tbaa !12
  %32 = icmp slt i32 %31, 0
  br i1 %32, label %33, label %34

33:                                               ; preds = %26
  br label %83

34:                                               ; preds = %26
  %35 = load ptr, ptr %5, align 8, !tbaa !8
  %36 = getelementptr ptr, ptr %35, i64 1
  %37 = load ptr, ptr %36, align 8, !tbaa !3
  %38 = call i32 @PyLong_AsInt(ptr noundef %37)
  store i32 %38, ptr %9, align 4, !tbaa !12
  %39 = load i32, ptr %9, align 4, !tbaa !12
  %40 = icmp eq i32 %39, -1
  br i1 %40, label %41, label %45

41:                                               ; preds = %34
  %42 = call ptr @PyErr_Occurred()
  %43 = icmp ne ptr %42, null
  br i1 %43, label %44, label %45

44:                                               ; preds = %41
  br label %83

45:                                               ; preds = %41, %34
  %46 = load i64, ptr %6, align 8, !tbaa !10
  %47 = icmp slt i64 %46, 3
  br i1 %47, label %48, label %49

48:                                               ; preds = %45
  br label %75

49:                                               ; preds = %45
  %50 = load ptr, ptr %5, align 8, !tbaa !8
  %51 = getelementptr ptr, ptr %50, i64 2
  %52 = load ptr, ptr %51, align 8, !tbaa !3
  store ptr %52, ptr %10, align 8, !tbaa !3
  %53 = load i64, ptr %6, align 8, !tbaa !10
  %54 = icmp slt i64 %53, 4
  br i1 %54, label %55, label %56

55:                                               ; preds = %49
  br label %75

56:                                               ; preds = %49
  %57 = load ptr, ptr %5, align 8, !tbaa !8
  %58 = getelementptr ptr, ptr %57, i64 3
  %59 = load ptr, ptr %58, align 8, !tbaa !3
  store ptr %59, ptr %11, align 8, !tbaa !3
  %60 = load i64, ptr %6, align 8, !tbaa !10
  %61 = icmp slt i64 %60, 5
  br i1 %61, label %62, label %63

62:                                               ; preds = %56
  br label %75

63:                                               ; preds = %56
  %64 = load ptr, ptr %5, align 8, !tbaa !8
  %65 = getelementptr ptr, ptr %64, i64 4
  %66 = load ptr, ptr %65, align 8, !tbaa !3
  %67 = call i32 @PyLong_AsInt(ptr noundef %66)
  store i32 %67, ptr %12, align 4, !tbaa !12
  %68 = load i32, ptr %12, align 4, !tbaa !12
  %69 = icmp eq i32 %68, -1
  br i1 %69, label %70, label %74

70:                                               ; preds = %63
  %71 = call ptr @PyErr_Occurred()
  %72 = icmp ne ptr %71, null
  br i1 %72, label %73, label %74

73:                                               ; preds = %70
  br label %83

74:                                               ; preds = %70, %63
  br label %75

75:                                               ; preds = %74, %62, %55, %48
  %76 = load ptr, ptr %4, align 8, !tbaa !3
  %77 = load i32, ptr %8, align 4, !tbaa !12
  %78 = load i32, ptr %9, align 4, !tbaa !12
  %79 = load ptr, ptr %10, align 8, !tbaa !3
  %80 = load ptr, ptr %11, align 8, !tbaa !3
  %81 = load i32, ptr %12, align 4, !tbaa !12
  %82 = call ptr @fcntl_lockf_impl(ptr noundef %76, i32 noundef %77, i32 noundef %78, ptr noundef %79, ptr noundef %80, i32 noundef %81)
  store ptr %82, ptr %7, align 8, !tbaa !3
  br label %83

83:                                               ; preds = %75, %73, %44, %33, %22, %15
  %84 = load ptr, ptr %7, align 8, !tbaa !3
  call void @llvm.lifetime.end.p0(i64 4, ptr %12) #7
  call void @llvm.lifetime.end.p0(i64 8, ptr %11) #7
  call void @llvm.lifetime.end.p0(i64 8, ptr %10) #7
  call void @llvm.lifetime.end.p0(i64 4, ptr %9) #7
  call void @llvm.lifetime.end.p0(i64 4, ptr %8) #7
  call void @llvm.lifetime.end.p0(i64 8, ptr %7) #7
  ret ptr %84
}