; Function Attrs: nounwind uwtable
define internal ptr @fcntl_lockf(ptr readnone captures(none) %0, ptr noundef readonly captures(none) %1, i64 noundef %2) #0 {
  %4 = alloca %struct.flock, align 8
  %5 = icmp slt i64 %2, 2
  br i1 %5, label %6, label %9

6:                                                ; preds = %3
  %7 = load ptr, ptr @PyExc_TypeError, align 8, !tbaa !3
  %8 = tail call ptr (ptr, ptr, ...) @PyErr_Format(ptr noundef %7, ptr noundef nonnull @.str.24, i64 noundef %2) #7
  br label %fcntl_lockf_impl.exit

9:                                                ; preds = %3
  %10 = icmp samesign ugt i64 %2, 5
  br i1 %10, label %11, label %14

11:                                               ; preds = %9
  %12 = load ptr, ptr @PyExc_TypeError, align 8, !tbaa !3
  %13 = tail call ptr (ptr, ptr, ...) @PyErr_Format(ptr noundef %12, ptr noundef nonnull @.str.25, i64 noundef %2) #7
  br label %fcntl_lockf_impl.exit

14:                                               ; preds = %9
  %15 = load ptr, ptr %1, align 8, !tbaa !3
  %16 = tail call i32 @PyObject_AsFileDescriptor(ptr noundef %15) #7
  %17 = icmp slt i32 %16, 0
  br i1 %17, label %fcntl_lockf_impl.exit, label %18

18:                                               ; preds = %14
  %19 = getelementptr i8, ptr %1, i64 8
  %20 = load ptr, ptr %19, align 8, !tbaa !3
  %21 = tail call i32 @PyLong_AsInt(ptr noundef %20) #7
  %22 = icmp eq i32 %21, -1
  br i1 %22, label %23, label %25

23:                                               ; preds = %18
  %24 = tail call ptr @PyErr_Occurred() #7
  %.not = icmp eq ptr %24, null
  br i1 %.not, label %25, label %fcntl_lockf_impl.exit

25:                                               ; preds = %23, %18
  %26 = icmp eq i64 %2, 2
  br i1 %26, label %.thread, label %27

27:                                               ; preds = %25
  %28 = getelementptr i8, ptr %1, i64 16
  %29 = load ptr, ptr %28, align 8, !tbaa !3
  %30 = icmp samesign ult i64 %2, 4
  br i1 %30, label %41, label %31

31:                                               ; preds = %27
  %32 = getelementptr i8, ptr %1, i64 24
  %33 = load ptr, ptr %32, align 8, !tbaa !3
  %.not28 = icmp eq i64 %2, 5
  br i1 %.not28, label %34, label %41

34:                                               ; preds = %31
  %35 = getelementptr i8, ptr %1, i64 32
  %36 = load ptr, ptr %35, align 8, !tbaa !3
  %37 = tail call i32 @PyLong_AsInt(ptr noundef %36) #7
  %38 = icmp eq i32 %37, -1
  br i1 %38, label %39, label %41

39:                                               ; preds = %34
  %40 = tail call ptr @PyErr_Occurred() #7
  %.not29 = icmp eq ptr %40, null
  br i1 %.not29, label %41, label %fcntl_lockf_impl.exit

41:                                               ; preds = %34, %39, %31, %27
  %.021 = phi ptr [ null, %27 ], [ %33, %31 ], [ %33, %39 ], [ %33, %34 ]
  %.0 = phi i32 [ 0, %27 ], [ 0, %31 ], [ -1, %39 ], [ %37, %34 ]
  %.not.i = icmp eq ptr %29, null
  br i1 %.not.i, label %.thread, label %43

.thread:                                          ; preds = %25, %41
  %.039 = phi i32 [ %.0, %41 ], [ 0, %25 ]
  %.02137 = phi ptr [ %.021, %41 ], [ null, %25 ]
  %42 = tail call ptr @Py_GetConstantBorrowed(i32 noundef 0) #7
  br label %43

43:                                               ; preds = %.thread, %41
  %.not.i40 = phi i1 [ true, %.thread ], [ false, %41 ]
  %.038 = phi i32 [ %.039, %.thread ], [ %.0, %41 ]
  %.02136 = phi ptr [ %.02137, %.thread ], [ %.021, %41 ]
  %.02234 = phi ptr [ null, %.thread ], [ %29, %41 ]
  %44 = phi ptr [ %42, %.thread ], [ %29, %41 ]
  %.not30.i = icmp eq ptr %.02136, null
  br i1 %.not30.i, label %45, label %47

45:                                               ; preds = %43
  %46 = tail call ptr @Py_GetConstantBorrowed(i32 noundef 0) #7
  br label %47

47:                                               ; preds = %45, %43
  %48 = phi ptr [ %46, %45 ], [ %.02136, %43 ]
  %49 = tail call i32 (ptr, ptr, ...) @PySys_Audit(ptr noundef nonnull @.str.26, ptr noundef nonnull @.str.27, i32 noundef range(i32 0, -2147483648) %16, i32 noundef %21, ptr noundef %44, ptr noundef %48, i32 noundef %.038) #7
  %50 = icmp slt i32 %49, 0
  br i1 %50, label %fcntl_lockf_impl.exit, label %51

51:                                               ; preds = %47
  call void @llvm.lifetime.start.p0(i64 32, ptr nonnull %4) #7
  %52 = icmp eq i32 %21, 8
  br i1 %52, label %59, label %53

53:                                               ; preds = %51
  %54 = and i32 %21, 1
  %.not31.i = icmp eq i32 %54, 0
  br i1 %.not31.i, label %55, label %59

55:                                               ; preds = %53
  %56 = and i32 %21, 2
  %.not32.i = icmp eq i32 %56, 0
  br i1 %.not32.i, label %57, label %59

57:                                               ; preds = %55
  %58 = load ptr, ptr @PyExc_ValueError, align 8, !tbaa !3
  tail call void @PyErr_SetString(ptr noundef %58, ptr noundef nonnull @.str.28) #7
  br label %.thread.i

59:                                               ; preds = %55, %53, %51
  %.sink.i = phi i16 [ 2, %51 ], [ 0, %53 ], [ 1, %55 ]
  store i16 %.sink.i, ptr %4, align 8, !tbaa !25
  %60 = getelementptr inbounds nuw i8, ptr %4, i64 16
  %61 = getelementptr inbounds nuw i8, ptr %4, i64 8
  call void @llvm.memset.p0.i64(ptr noundef nonnull align 8 dereferenceable(16) %61, i8 0, i64 16, i1 false)
  br i1 %.not30.i, label %65, label %62

62:                                               ; preds = %59
  %63 = tail call i64 @PyLong_AsLong(ptr noundef nonnull %.02136) #7
  store i64 %63, ptr %61, align 8, !tbaa !28
  %64 = tail call ptr @PyErr_Occurred() #7
  %.not33.i = icmp eq ptr %64, null
  br i1 %.not33.i, label %65, label %.thread.i

65:                                               ; preds = %62, %59
  br i1 %.not.i40, label %69, label %66

66:                                               ; preds = %65
  %67 = tail call i64 @PyLong_AsLong(ptr noundef nonnull %.02234) #7
  store i64 %67, ptr %60, align 8, !tbaa !29
  %68 = tail call ptr @PyErr_Occurred() #7
  %.not34.i = icmp eq ptr %68, null
  br i1 %.not34.i, label %69, label %.thread.i

69:                                               ; preds = %66, %65
  %70 = trunc i32 %.038 to i16
  %71 = getelementptr inbounds nuw i8, ptr %4, i64 2
  store i16 %70, ptr %71, align 2, !tbaa !30
  %72 = and i32 %21, 4
  %.not35.i = icmp eq i32 %72, 0
  %73 = select i1 %.not35.i, i32 7, i32 6
  br label %74

74:                                               ; preds = %82, %69
  %75 = call ptr @PyEval_SaveThread() #7
  %76 = call i32 (i32, i32, ...) @fcntl64(i32 noundef range(i32 0, -2147483648) %16, i32 noundef %73, ptr noundef nonnull %4) #7
  call void @PyEval_RestoreThread(ptr noundef %75) #7
  %77 = icmp eq i32 %76, -1
  br i1 %77, label %78, label %84

78:                                               ; preds = %74
  %79 = tail call ptr @__errno_location() #8
  %80 = load i32, ptr %79, align 4, !tbaa !8
  %81 = icmp eq i32 %80, 4
  br i1 %81, label %82, label %.thread5.thread.i

.thread5.thread.i:                                ; preds = %78
  call void @llvm.lifetime.end.p0(i64 32, ptr nonnull %4) #7
  br label %86

82:                                               ; preds = %78
  %83 = call i32 @PyErr_CheckSignals() #7
  %.not36.i = icmp eq i32 %83, 0
  br i1 %.not36.i, label %74, label %.thread5.i, !llvm.loop !31

.thread.i:                                        ; preds = %66, %62, %57
  call void @llvm.lifetime.end.p0(i64 32, ptr nonnull %4) #7
  br label %fcntl_lockf_impl.exit

.thread5.i:                                       ; preds = %82
  call void @llvm.lifetime.end.p0(i64 32, ptr nonnull %4) #7
  br label %fcntl_lockf_impl.exit

84:                                               ; preds = %74
  %85 = icmp slt i32 %76, 0
  call void @llvm.lifetime.end.p0(i64 32, ptr nonnull %4) #7
  br i1 %85, label %86, label %89

86:                                               ; preds = %84, %.thread5.thread.i
  %87 = load ptr, ptr @PyExc_OSError, align 8, !tbaa !3
  %88 = call ptr @PyErr_SetFromErrno(ptr noundef %87) #7
  br label %fcntl_lockf_impl.exit

89:                                               ; preds = %84
  %90 = call ptr @Py_GetConstantBorrowed(i32 noundef 0) #7
  br label %fcntl_lockf_impl.exit

fcntl_lockf_impl.exit:                            ; preds = %89, %86, %.thread5.i, %.thread.i, %47, %39, %23, %14, %11, %6
  %.023 = phi ptr [ null, %6 ], [ null, %11 ], [ null, %14 ], [ null, %23 ], [ null, %39 ], [ %90, %89 ], [ null, %47 ], [ %88, %86 ], [ null, %.thread.i ], [ null, %.thread5.i ]
  ret ptr %.023
}